; Function Attrs: mustprogress nounwind uwtable
define void @_ZN6icu_776number5ScaleD2Ev(ptr noundef nonnull readonly align 8 captures(none) dereferenceable(20) %0) unnamed_addr #0 align 2 personality ptr @__gxx_personality_v0 {
  %2 = getelementptr inbounds nuw i8, ptr %0, i64 8
  %3 = load ptr, ptr %2, align 8, !tbaa !18
  %4 = icmp eq ptr %3, null
  br i1 %4, label %13, label %5

5:                                                ; preds = %1
  %6 = getelementptr inbounds nuw i8, ptr %3, i64 12
  %7 = load i8, ptr %6, align 4, !tbaa !26
  %.not.i.i.i = icmp eq i8 %7, 0
  br i1 %.not.i.i.i, label %_ZN6icu_776number4impl6DecNumD2Ev.exit, label %8

8:                                                ; preds = %5
  %9 = load ptr, ptr %3, align 8, !tbaa !20
  invoke void @uprv_free_77(ptr noundef %9)
          to label %_ZN6icu_776number4impl6DecNumD2Ev.exit unwind label %10

10:                                               ; preds = %8
  %11 = landingpad { ptr, i32 }
          catch ptr null
  %12 = extractvalue { ptr, i32 } %11, 0
  tail call void @__clang_call_terminate(ptr %12) #15
  unreachable

_ZN6icu_776number4impl6DecNumD2Ev.exit:           ; preds = %5, %8
  tail call void @_ZN6icu_777UMemorydlEPv(ptr noundef nonnull %3) #13
  br label %13

13:                                               ; preds = %_ZN6icu_776number4impl6DecNumD2Ev.exit, %1
  ret void
}